; Function Attrs: mustprogress nounwind willreturn uwtable
define dso_local i32 @uv_fs_scandir_next(ptr noundef captures(none) %0, ptr noundef writeonly captures(none) %1) local_unnamed_addr #18 {
  %3 = getelementptr inbounds nuw i8, ptr %0, i64 88
  %4 = load i64, ptr %3, align 8
  %5 = icmp slt i64 %4, 0
  br i1 %5, label %6, label %8

6:                                                ; preds = %2
  %7 = trunc i64 %4 to i32
  br label %36

8:                                                ; preds = %2
  %9 = getelementptr inbounds nuw i8, ptr %0, i64 96
  %10 = load ptr, ptr %9, align 8
  %.not = icmp eq ptr %10, null
  br i1 %.not, label %36, label %11

11:                                               ; preds = %8
  %12 = getelementptr inbounds nuw i8, ptr %0, i64 292
  %13 = load i32, ptr %12, align 4
  %.not21 = icmp eq i32 %13, 0
  br i1 %.not21, label %19, label %14

14:                                               ; preds = %11
  %15 = add i32 %13, -1
  %16 = zext i32 %15 to i64
  %17 = getelementptr inbounds nuw ptr, ptr %10, i64 %16
  %18 = load ptr, ptr %17, align 8
  tail call void @free(ptr noundef %18) #26
  %.pre = load i32, ptr %12, align 4
  %.pre22 = load i64, ptr %3, align 8
  br label %19

19:                                               ; preds = %14, %11
  %20 = phi i64 [ %.pre22, %14 ], [ %4, %11 ]
  %21 = phi i32 [ %.pre, %14 ], [ 0, %11 ]
  %22 = trunc i64 %20 to i32
  %23 = icmp eq i32 %21, %22
  br i1 %23, label %24, label %25

24:                                               ; preds = %19
  tail call void @free(ptr noundef nonnull %10) #26
  store ptr null, ptr %9, align 8
  br label %36

25:                                               ; preds = %19
  %26 = add i32 %21, 1
  store i32 %26, ptr %12, align 4
  %27 = zext i32 %21 to i64
  %28 = getelementptr inbounds nuw ptr, ptr %10, i64 %27
  %29 = load ptr, ptr %28, align 8
  %30 = getelementptr inbounds nuw i8, ptr %29, i64 19
  store ptr %30, ptr %1, align 8
  %31 = getelementptr inbounds nuw i8, ptr %29, i64 18
  %32 = load i8, ptr %31, align 2
  %switch.tableidx = add i8 %32, -1
  %33 = icmp ult i8 %switch.tableidx, 12
  br i1 %33, label %switch.lookup, label %uv__fs_get_dirent_type.exit

switch.lookup:                                    ; preds = %25
  %34 = zext nneg i8 %switch.tableidx to i64
  %switch.gep = getelementptr inbounds nuw [12 x i32], ptr @switch.table.uv__fs_get_dirent_type, i64 0, i64 %34
  %switch.load = load i32, ptr %switch.gep, align 4
  br label %uv__fs_get_dirent_type.exit

uv__fs_get_dirent_type.exit:                      ; preds = %25, %switch.lookup
  %.0.i = phi i32 [ %switch.load, %switch.lookup ], [ 0, %25 ]
  %35 = getelementptr inbounds nuw i8, ptr %1, i64 8
  store i32 %.0.i, ptr %35, align 8
  br label %36

36:                                               ; preds = %8, %uv__fs_get_dirent_type.exit, %24, %6
  %.0 = phi i32 [ %7, %6 ], [ -4095, %24 ], [ 0, %uv__fs_get_dirent_type.exit ], [ -4095, %8 ]
  ret i32 %.0
}